; Function Attrs: null_pointer_is_valid sspstrong uwtable
define range(i32 -6, 1) i32 @wtap_block_set_nth_string_option_value(ptr noundef readonly captures(address_is_null) %0, i32 noundef %1, i32 noundef %2, ptr noundef %3, i64 noundef %4) local_unnamed_addr #0 {
  %6 = icmp eq ptr %0, null
  br i1 %6, label %wtap_block_get_nth_option_common.exit.thread, label %7

7:                                                ; preds = %5
  %8 = load ptr, ptr %0, align 8
  %9 = getelementptr inbounds nuw i8, ptr %8, i64 48
  %10 = load ptr, ptr %9, align 8
  %11 = zext i32 %1 to i64
  %12 = inttoptr i64 %11 to ptr
  %13 = tail call ptr @g_hash_table_lookup(ptr noundef %10, ptr noundef %12)
  %14 = icmp eq ptr %13, null
  br i1 %14, label %wtap_block_get_nth_option_common.exit.thread, label %15

15:                                               ; preds = %7
  %16 = getelementptr inbounds nuw i8, ptr %13, i64 16
  %17 = load i32, ptr %16, align 8
  %.not.i = icmp eq i32 %17, 3
  br i1 %.not.i, label %18, label %wtap_block_get_nth_option_common.exit.thread

18:                                               ; preds = %15
  %19 = getelementptr inbounds nuw i8, ptr %13, i64 20
  %20 = load i32, ptr %19, align 4
  %21 = and i32 %20, 1
  %.not16.i = icmp eq i32 %21, 0
  br i1 %.not16.i, label %wtap_block_get_nth_option_common.exit.thread, label %22

22:                                               ; preds = %18
  %23 = getelementptr inbounds nuw i8, ptr %0, i64 16
  %24 = load ptr, ptr %23, align 8
  %25 = getelementptr inbounds nuw i8, ptr %24, i64 8
  %26 = load i32, ptr %25, align 8
  %.not.i.i = icmp eq i32 %26, 0
  br i1 %.not.i.i, label %wtap_block_get_nth_option_common.exit.thread, label %.lr.ph.i.i

.lr.ph.i.i:                                       ; preds = %22
  %27 = load ptr, ptr %24, align 8
  %wide.trip.count.i.i = zext i32 %26 to i64
  br label %28

28:                                               ; preds = %36, %.lr.ph.i.i
  %indvars.iv.i.i = phi i64 [ 0, %.lr.ph.i.i ], [ %indvars.iv.next.i.i, %36 ]
  %.016.i.i = phi i32 [ 0, %.lr.ph.i.i ], [ %.1.i.i, %36 ]
  %29 = getelementptr %struct.wtap_option_t, ptr %27, i64 %indvars.iv.i.i
  %30 = load i32, ptr %29, align 8
  %31 = icmp eq i32 %30, %1
  br i1 %31, label %32, label %36

32:                                               ; preds = %28
  %33 = icmp eq i32 %.016.i.i, %2
  br i1 %33, label %37, label %34

34:                                               ; preds = %32
  %35 = add i32 %.016.i.i, 1
  br label %36

36:                                               ; preds = %34, %28
  %.1.i.i = phi i32 [ %35, %34 ], [ %.016.i.i, %28 ]
  %indvars.iv.next.i.i = add nuw nsw i64 %indvars.iv.i.i, 1
  %exitcond.not.i.i = icmp eq i64 %indvars.iv.next.i.i, %wide.trip.count.i.i
  br i1 %exitcond.not.i.i, label %wtap_block_get_nth_option_common.exit.thread, label %28, !llvm.loop !18

37:                                               ; preds = %32
  %38 = getelementptr inbounds nuw i8, ptr %29, i64 8
  %39 = load ptr, ptr %38, align 8
  tail call void @g_free(ptr noundef %39)
  %40 = tail call noalias ptr @g_strndup(ptr noundef %3, i64 noundef %4)
  store ptr %40, ptr %38, align 8
  br label %wtap_block_get_nth_option_common.exit.thread

wtap_block_get_nth_option_common.exit.thread:     ; preds = %36, %22, %18, %15, %7, %5, %37
  %.0 = phi i32 [ 0, %37 ], [ -2, %22 ], [ -4, %18 ], [ -3, %15 ], [ -1, %7 ], [ -6, %5 ], [ -2, %36 ]
  ret i32 %.0
}